; Function Attrs: mustprogress uwtable
define void @_ZN2cv2ft6filterERKNS_11_InputArrayES3_RKNS_12_OutputArrayE(ptr noundef nonnull align 8 dereferenceable(24) %0, ptr noundef nonnull align 8 dereferenceable(24) %1, ptr noundef nonnull align 8 dereferenceable(24) %2) local_unnamed_addr #0 personality ptr @__gxx_personality_v0 {
  %4 = alloca %"class.cv::Mat", align 8
  %5 = alloca %"class.cv::MatExpr", align 8
  %6 = alloca %"class.cv::_InputArray", align 8
  %7 = tail call i64 @_ZNK2cv11_InputArray4sizeEi(ptr noundef nonnull align 8 dereferenceable(24) %0, i32 noundef -1)
  call void @_ZN2cv3Mat4onesENS_5Size_IiEEi(ptr dead_on_unwind nonnull writable sret(%"class.cv::MatExpr") align 8 %5, i64 %7, i32 noundef 0)
  call void @_ZN2cv3MatC1Ev(ptr noundef nonnull align 8 dereferenceable(96) %4) #10
  %8 = load ptr, ptr %5, align 8, !noalias !32
  %9 = load ptr, ptr %8, align 8
  %10 = getelementptr inbounds i8, ptr %9, i64 24
  %11 = load ptr, ptr %10, align 8
  invoke void %11(ptr noundef nonnull align 8 dereferenceable(8) %8, ptr noundef nonnull align 8 dereferenceable(352) %5, ptr noundef nonnull align 8 dereferenceable(96) %4, i32 noundef -1)
          to label %13 unwind label %.body

.body:                                            ; preds = %3
  %12 = landingpad { ptr, i32 }
          cleanup
  call void @_ZN2cv3MatD1Ev(ptr noundef nonnull align 8 dereferenceable(96) %4) #10
  call void @_ZN2cv7MatExprD2Ev(ptr noundef nonnull align 8 dereferenceable(352) %5) #10
  br label %23

13:                                               ; preds = %3
  %14 = getelementptr inbounds i8, ptr %5, i64 208
  call void @_ZN2cv3MatD1Ev(ptr noundef nonnull align 8 dereferenceable(96) %14) #10
  %15 = getelementptr inbounds i8, ptr %5, i64 112
  call void @_ZN2cv3MatD1Ev(ptr noundef nonnull align 8 dereferenceable(96) %15) #10
  %16 = getelementptr inbounds i8, ptr %5, i64 16
  call void @_ZN2cv3MatD1Ev(ptr noundef nonnull align 8 dereferenceable(96) %16) #10
  %17 = getelementptr inbounds i8, ptr %6, i64 16
  store i32 0, ptr %17, align 8
  %18 = getelementptr inbounds i8, ptr %6, i64 20
  store i32 0, ptr %18, align 4
  store i32 16842752, ptr %6, align 8
  %19 = getelementptr inbounds i8, ptr %6, i64 8
  store ptr %4, ptr %19, align 8
  invoke void @_ZN2cv2ft13FT02D_processERKNS_11_InputArrayES3_RKNS_12_OutputArrayES3_(ptr noundef nonnull align 8 dereferenceable(24) %0, ptr noundef nonnull align 8 dereferenceable(24) %1, ptr noundef nonnull align 8 dereferenceable(24) %2, ptr noundef nonnull align 8 dereferenceable(24) %6)
          to label %20 unwind label %21

20:                                               ; preds = %13
  call void @_ZN2cv3MatD1Ev(ptr noundef nonnull align 8 dereferenceable(96) %4) #10
  ret void

21:                                               ; preds = %13
  %22 = landingpad { ptr, i32 }
          cleanup
  call void @_ZN2cv3MatD1Ev(ptr noundef nonnull align 8 dereferenceable(96) %4) #10
  br label %23

23:                                               ; preds = %21, %.body
  %.pn.pn = phi { ptr, i32 } [ %22, %21 ], [ %12, %.body ]
  resume { ptr, i32 } %.pn.pn
}